(dp1
S'cv_endtime'
p2
(lp3
sS'folds'
p4
I1
sS'cv_starttime'
p5
(lp6
F1452383364.3861711
asS'endtime'
p7
(lp8
sS'optimizer'
p9
NsS'optimizer_time'
p10
(lp11
sS'instance_order'
p12
(lp13
sS'max_wallclock_time'
p14
F1.7976931348623157e+308
sS'title'
p15
NsS'trials'
p16
(lp17
sS'total_wallclock_time'
p18
I0
sS'experiment_name'
p19
S''
sS'starttime'
p20
(lp21
s.